; Function Attrs: nounwind uwtable
define ptr @l___private_Lean_Meta_Tactic_Grind_Arith_Cutsat_EqCnstr_0__Lean_Meta_Grind_Arith_Cutsat_isForbiddenParent___lambda__2(i8 noundef zeroext %0, ptr noundef %1, ptr readnone captures(none) %2) local_unnamed_addr #1 {
  %4 = load ptr, ptr @l___private_Lean_Meta_Tactic_Grind_Arith_Cutsat_EqCnstr_0__Lean_Meta_Grind_Arith_Cutsat_getKindAndType_x3f___closed__26, align 8, !tbaa !9
  %5 = tail call zeroext i8 @lean_name_eq(ptr noundef %1, ptr noundef %4) #7
  %6 = icmp eq i8 %5, 0
  br i1 %6, label %7, label %l___private_Lean_Meta_Tactic_Grind_Arith_Cutsat_EqCnstr_0__Lean_Meta_Grind_Arith_Cutsat_isForbiddenParent___lambda__1.exit

7:                                                ; preds = %3
  %8 = load ptr, ptr @l___private_Lean_Meta_Tactic_Grind_Arith_Cutsat_EqCnstr_0__Lean_Meta_Grind_Arith_Cutsat_isForbiddenParent___lambda__2___closed__3, align 8, !tbaa !9
  %9 = tail call zeroext i8 @lean_name_eq(ptr noundef %1, ptr noundef %8) #7
  %10 = icmp eq i8 %9, 0
  br i1 %10, label %11, label %l___private_Lean_Meta_Tactic_Grind_Arith_Cutsat_EqCnstr_0__Lean_Meta_Grind_Arith_Cutsat_isForbiddenParent___lambda__1.exit

11:                                               ; preds = %7
  %12 = load ptr, ptr @l___private_Lean_Meta_Tactic_Grind_Arith_Cutsat_EqCnstr_0__Lean_Meta_Grind_Arith_Cutsat_isForbiddenParent___lambda__2___closed__6, align 8, !tbaa !9
  %13 = tail call zeroext i8 @lean_name_eq(ptr noundef %1, ptr noundef %12) #7
  %14 = icmp eq i8 %13, 0
  br i1 %14, label %15, label %l___private_Lean_Meta_Tactic_Grind_Arith_Cutsat_EqCnstr_0__Lean_Meta_Grind_Arith_Cutsat_isForbiddenParent___lambda__1.exit

15:                                               ; preds = %11
  switch i8 %0, label %lean_dec.exit.i [
    i8 0, label %l___private_Lean_Meta_Tactic_Grind_Arith_Cutsat_EqCnstr_0__Lean_Meta_Grind_Arith_Cutsat_isForbiddenParent___lambda__1.exit
    i8 1, label %16
    i8 2, label %23
  ]

16:                                               ; preds = %15
  %17 = load ptr, ptr @l___private_Lean_Meta_Tactic_Grind_Arith_Cutsat_EqCnstr_0__Lean_Meta_Grind_Arith_Cutsat_getKindAndType_x3f___closed__20, align 8, !tbaa !9
  %18 = tail call zeroext i8 @lean_name_eq(ptr noundef %1, ptr noundef %17) #7
  %19 = zext i8 %18 to i64
  %20 = shl nuw nsw i64 %19, 1
  %21 = or disjoint i64 %20, 1
  %22 = inttoptr i64 %21 to ptr
  br label %l___private_Lean_Meta_Tactic_Grind_Arith_Cutsat_EqCnstr_0__Lean_Meta_Grind_Arith_Cutsat_isForbiddenParent___lambda__1.exit

23:                                               ; preds = %15
  %24 = load ptr, ptr @l___private_Lean_Meta_Tactic_Grind_Arith_Cutsat_EqCnstr_0__Lean_Meta_Grind_Arith_Cutsat_getKindAndType_x3f___closed__20, align 8, !tbaa !9
  %25 = tail call zeroext i8 @lean_name_eq(ptr noundef %1, ptr noundef %24) #7
  %26 = icmp eq i8 %25, 0
  br i1 %26, label %27, label %l___private_Lean_Meta_Tactic_Grind_Arith_Cutsat_EqCnstr_0__Lean_Meta_Grind_Arith_Cutsat_isForbiddenParent___lambda__1.exit

27:                                               ; preds = %23
  %28 = load ptr, ptr @l___private_Lean_Meta_Tactic_Grind_Arith_Cutsat_EqCnstr_0__Lean_Meta_Grind_Arith_Cutsat_isForbiddenParent___lambda__1___closed__2, align 8, !tbaa !9
  %29 = tail call zeroext i8 @lean_name_eq(ptr noundef %1, ptr noundef %28) #7
  %30 = zext i8 %29 to i64
  %31 = shl nuw nsw i64 %30, 1
  %32 = or disjoint i64 %31, 1
  %33 = inttoptr i64 %32 to ptr
  br label %l___private_Lean_Meta_Tactic_Grind_Arith_Cutsat_EqCnstr_0__Lean_Meta_Grind_Arith_Cutsat_isForbiddenParent___lambda__1.exit

lean_dec.exit.i:                                  ; preds = %15
  %34 = load ptr, ptr @l___private_Lean_Meta_Tactic_Grind_Arith_Cutsat_EqCnstr_0__Lean_Meta_Grind_Arith_Cutsat_isForbiddenParent___lambda__1___closed__6, align 8, !tbaa !9
  %35 = load ptr, ptr @l_panic___at___private_Lean_Meta_Tactic_Grind_Arith_Cutsat_EqCnstr_0__Lean_Meta_Grind_Arith_Cutsat_isForbiddenParent___spec__1___closed__1, align 8, !tbaa !9
  %36 = tail call ptr @lean_panic_fn(ptr noundef %35, ptr noundef %34) #7
  br label %l___private_Lean_Meta_Tactic_Grind_Arith_Cutsat_EqCnstr_0__Lean_Meta_Grind_Arith_Cutsat_isForbiddenParent___lambda__1.exit

l___private_Lean_Meta_Tactic_Grind_Arith_Cutsat_EqCnstr_0__Lean_Meta_Grind_Arith_Cutsat_isForbiddenParent___lambda__1.exit: ; preds = %3, %7, %11, %lean_dec.exit.i, %27, %23, %16, %15
  %.2 = phi ptr [ %36, %lean_dec.exit.i ], [ %22, %16 ], [ %33, %27 ], [ inttoptr (i64 1 to ptr), %15 ], [ inttoptr (i64 3 to ptr), %23 ], [ inttoptr (i64 3 to ptr), %11 ], [ inttoptr (i64 3 to ptr), %7 ], [ inttoptr (i64 3 to ptr), %3 ]
  ret ptr %.2
}